target datalayout = "e-m:e-p270:32:32-p271:32:32-p272:64:64-i64:64-i128:128-f80:128-n8:16:32:64-S128"
target triple = "x86_64-pc-linux-gnu"

%struct._stritem = type { ptr, ptr, ptr, i32, i32, i32, i16, i16, i8, i8, [0 x %union.anon] }
%union.anon = type { i64 }

; Function Attrs: nounwind uwtable
define dso_local ptr @do_item_touch(ptr noundef %0, i64 noundef %1, i32 noundef %2, i32 noundef %3, ptr noundef %4) #0 {
  %6 = alloca ptr, align 8
  %7 = alloca i64, align 8
  %8 = alloca i32, align 4
  %9 = alloca i32, align 4
  %10 = alloca ptr, align 8
  %11 = alloca ptr, align 8
  store ptr %0, ptr %6, align 8, !tbaa !65
  store i64 %1, ptr %7, align 8, !tbaa !10
  store i32 %2, ptr %8, align 4, !tbaa !4
  store i32 %3, ptr %9, align 4, !tbaa !4
  store ptr %4, ptr %10, align 8, !tbaa !33
  call void @llvm.lifetime.start.p0(i64 8, ptr %11) #9
  %12 = load ptr, ptr %6, align 8, !tbaa !65
  %13 = load i64, ptr %7, align 8, !tbaa !10
  %14 = load i32, ptr %9, align 4, !tbaa !4
  %15 = load ptr, ptr %10, align 8, !tbaa !33
  %16 = call ptr @do_item_get(ptr noundef %12, i64 noundef %13, i32 noundef %14, ptr noundef %15, i1 noundef zeroext true)
  store ptr %16, ptr %11, align 8, !tbaa !16
  %17 = load ptr, ptr %11, align 8, !tbaa !16
  %18 = icmp ne ptr %17, null
  br i1 %18, label %19, label %23

19:                                               ; preds = %5
  %20 = load i32, ptr %8, align 4, !tbaa !4
  %21 = load ptr, ptr %11, align 8, !tbaa !16
  %22 = getelementptr inbounds nuw %struct._stritem, ptr %21, i32 0, i32 4
  store i32 %20, ptr %22, align 4, !tbaa !4
  br label %23

23:                                               ; preds = %19, %5
  %24 = load ptr, ptr %11, align 8, !tbaa !16
  call void @llvm.lifetime.end.p0(i64 8, ptr %11) #9
  ret ptr %24
}