; Function Attrs: nounwind uwtable
define dso_local ptr @do_item_touch(ptr noundef %0, i64 noundef %1, i32 noundef %2, i32 noundef %3, ptr noundef %4) local_unnamed_addr #0 {
  %6 = tail call ptr @do_item_get(ptr noundef %0, i64 noundef %1, i32 noundef %3, ptr noundef %4, i1 noundef zeroext true)
  %.not = icmp eq ptr %6, null
  br i1 %.not, label %9, label %7

7:                                                ; preds = %5
  %8 = getelementptr inbounds nuw i8, ptr %6, i64 28
  store i32 %2, ptr %8, align 4, !tbaa !22
  br label %9

9:                                                ; preds = %7, %5
  ret ptr %6
}